; Function Attrs: mustprogress nounwind uwtable
define dso_local void @_ZN4llvm3sys2fs8TempFile4keepEv(ptr dead_on_unwind noalias writable sret(%"class.llvm::Error") align 8 %0, ptr noundef nonnull align 8 dereferenceable(44) %1) local_unnamed_addr #0 align 2 {
  store i8 1, ptr %1, align 8
  %3 = getelementptr inbounds nuw i8, ptr %1, i64 8
  %4 = tail call noundef ptr @_ZNKSt7__cxx1112basic_stringIcSt11char_traitsIcESaIcEE4dataEv(ptr noundef nonnull align 8 dereferenceable(32) %3) #30
  %5 = tail call noundef i64 @_ZNKSt7__cxx1112basic_stringIcSt11char_traitsIcESaIcEE6lengthEv(ptr noundef nonnull align 8 dereferenceable(32) %3) #30
  tail call void @_ZN4llvm3sys22DontRemoveFileOnSignalENS_9StringRefE(ptr %4, i64 %5) #30
  %6 = tail call noundef nonnull align 8 dereferenceable(32) ptr @_ZNSt7__cxx1112basic_stringIcSt11char_traitsIcESaIcEEaSEPKc(ptr noundef nonnull align 8 dereferenceable(32) %3, ptr noundef nonnull @.str.3) #30
  %7 = getelementptr inbounds nuw i8, ptr %1, i64 40
  %8 = load i32, ptr %7, align 8
  %9 = tail call i32 @close(i32 noundef %8) #30
  %10 = icmp eq i32 %9, -1
  br i1 %10, label %11, label %_ZN4llvm12ErrorSuccessD2Ev.exit

11:                                               ; preds = %2
  %12 = tail call ptr @__errno_location() #33
  %13 = load i32, ptr %12, align 4
  %14 = tail call noundef nonnull align 8 dereferenceable(8) ptr @_ZNSt3_V216generic_categoryEv() #33
  tail call void @_ZN4llvm16errorCodeToErrorESt10error_code(ptr dead_on_unwind writable sret(%"class.llvm::Error") align 8 %0, i32 %13, ptr nonnull %14) #30
  br label %15

_ZN4llvm12ErrorSuccessD2Ev.exit:                  ; preds = %2
  store i32 -1, ptr %7, align 8
  store ptr null, ptr %0, align 8
  br label %15

15:                                               ; preds = %_ZN4llvm12ErrorSuccessD2Ev.exit, %11
  ret void
}